target datalayout = "e-m:e-p270:32:32-p271:32:32-p272:64:64-i64:64-i128:128-f80:128-n8:16:32:64-S128"
target triple = "x86_64-pc-linux-gnu"

%struct.asn1_string_st = type { i32, i32, ptr, i64 }

; Function Attrs: nounwind uwtable
define i32 @ASN1_BIT_STRING_get_bit(ptr noundef %0, i32 noundef %1) #0 {
  %3 = alloca i32, align 4
  %4 = alloca ptr, align 8
  %5 = alloca i32, align 4
  %6 = alloca i32, align 4
  %7 = alloca i32, align 4
  %8 = alloca i32, align 4
  store ptr %0, ptr %4, align 8, !tbaa !3
  store i32 %1, ptr %5, align 4, !tbaa !10
  call void @llvm.lifetime.start.p0(i64 4, ptr %6) #5
  call void @llvm.lifetime.start.p0(i64 4, ptr %7) #5
  %9 = load i32, ptr %5, align 4, !tbaa !10
  %10 = icmp slt i32 %9, 0
  br i1 %10, label %11, label %12

11:                                               ; preds = %2
  store i32 0, ptr %3, align 4
  store i32 1, ptr %8, align 4
  br label %47

12:                                               ; preds = %2
  %13 = load i32, ptr %5, align 4, !tbaa !10
  %14 = sdiv i32 %13, 8
  store i32 %14, ptr %6, align 4, !tbaa !10
  %15 = load i32, ptr %5, align 4, !tbaa !10
  %16 = and i32 %15, 7
  %17 = sub nsw i32 7, %16
  %18 = shl i32 1, %17
  store i32 %18, ptr %7, align 4, !tbaa !10
  %19 = load ptr, ptr %4, align 8, !tbaa !3
  %20 = icmp eq ptr %19, null
  br i1 %20, label %33, label %21

21:                                               ; preds = %12
  %22 = load ptr, ptr %4, align 8, !tbaa !3
  %23 = getelementptr inbounds nuw %struct.asn1_string_st, ptr %22, i32 0, i32 0
  %24 = load i32, ptr %23, align 8, !tbaa !14
  %25 = load i32, ptr %6, align 4, !tbaa !10
  %26 = add nsw i32 %25, 1
  %27 = icmp slt i32 %24, %26
  br i1 %27, label %33, label %28

28:                                               ; preds = %21
  %29 = load ptr, ptr %4, align 8, !tbaa !3
  %30 = getelementptr inbounds nuw %struct.asn1_string_st, ptr %29, i32 0, i32 2
  %31 = load ptr, ptr %30, align 8, !tbaa !18
  %32 = icmp eq ptr %31, null
  br i1 %32, label %33, label %34

33:                                               ; preds = %28, %21, %12
  store i32 0, ptr %3, align 4
  store i32 1, ptr %8, align 4
  br label %47

34:                                               ; preds = %28
  %35 = load ptr, ptr %4, align 8, !tbaa !3
  %36 = getelementptr inbounds nuw %struct.asn1_string_st, ptr %35, i32 0, i32 2
  %37 = load ptr, ptr %36, align 8, !tbaa !18
  %38 = load i32, ptr %6, align 4, !tbaa !10
  %39 = sext i32 %38 to i64
  %40 = getelementptr inbounds i8, ptr %37, i64 %39
  %41 = load i8, ptr %40, align 1, !tbaa !19
  %42 = zext i8 %41 to i32
  %43 = load i32, ptr %7, align 4, !tbaa !10
  %44 = and i32 %42, %43
  %45 = icmp ne i32 %44, 0
  %46 = zext i1 %45 to i32
  store i32 %46, ptr %3, align 4
  store i32 1, ptr %8, align 4
  br label %47

47:                                               ; preds = %34, %33, %11
  call void @llvm.lifetime.end.p0(i64 4, ptr %7) #5
  call void @llvm.lifetime.end.p0(i64 4, ptr %6) #5
  %48 = load i32, ptr %3, align 4
  ret i32 %48
}