; Function Attrs: mustprogress nofree norecurse nosync nounwind willreturn memory(read, inaccessiblemem: none) uwtable
define range(i32 0, 2) i32 @ASN1_BIT_STRING_get_bit(ptr noundef readonly captures(address_is_null) %0, i32 noundef %1) local_unnamed_addr #5 {
  %3 = icmp slt i32 %1, 0
  br i1 %3, label %22, label %4

4:                                                ; preds = %2
  %5 = lshr i32 %1, 3
  %6 = and i32 %1, 7
  %7 = xor i32 %6, 7
  %8 = icmp eq ptr %0, null
  br i1 %8, label %22, label %9

9:                                                ; preds = %4
  %10 = load i32, ptr %0, align 8, !tbaa !3
  %.not = icmp sgt i32 %10, %5
  br i1 %.not, label %11, label %22

11:                                               ; preds = %9
  %12 = getelementptr inbounds nuw i8, ptr %0, i64 8
  %13 = load ptr, ptr %12, align 8, !tbaa !12
  %14 = icmp eq ptr %13, null
  br i1 %14, label %22, label %15

15:                                               ; preds = %11
  %16 = zext nneg i32 %5 to i64
  %17 = getelementptr inbounds nuw i8, ptr %13, i64 %16
  %18 = load i8, ptr %17, align 1, !tbaa !13
  %19 = zext i8 %18 to i32
  %20 = lshr i32 %19, %7
  %21 = and i32 %20, 1
  br label %22

22:                                               ; preds = %4, %9, %11, %2, %15
  %.0 = phi i32 [ %21, %15 ], [ 0, %2 ], [ 0, %11 ], [ 0, %9 ], [ 0, %4 ]
  ret i32 %.0
}